(dp1
S'output'
p2
S"<type 'exceptions.TypeError'> __init__() takes at least 3 arguments (1 given)"
p3
sS'layer'
p4
S'/Users/i342082/Downloads/web2py/applications/blog_it_out2/models/db.py'
p5
sS'code'
p6
S'<code object <module> at 0x10b3a8d30, file "/Users/i342082/Downloads/web2py/applications/blog_it_out2/models/db.py", line 7>'
p7
sS'snapshot'
p8
(dp9
S'exception'
p10
(dp11
S'__getslice__'
p12
S"<method-wrapper '__getslice__' of exceptions.TypeError object>"
p13
sS'__str__'
p14
S"<method-wrapper '__str__' of exceptions.TypeError object>"
p15
sS'__reduce__'
p16
S'<built-in method __reduce__ of exceptions.TypeError object>'
p17
sS'__dict__'
p18
S'{}'
p19
sS'message'
p20
S"'__init__() takes at least 3 arguments (1 given)'"
p21
sS'__sizeof__'
p22
S'<built-in method __sizeof__ of exceptions.TypeError object>'
p23
sS'__init__'
p24
S"<method-wrapper '__init__' of exceptions.TypeError object>"
p25
sS'__setattr__'
p26
S"<method-wrapper '__setattr__' of exceptions.TypeError object>"
p27
sS'__reduce_ex__'
p28
S'<built-in method __reduce_ex__ of exceptions.TypeError object>'
p29
sS'__new__'
p30
S'<built-in method __new__ of type object>'
p31
sS'__format__'
p32
S'<built-in method __format__ of exceptions.TypeError object>'
p33
sS'__class__'
p34
S"<type 'exceptions.TypeError'>"
p35
sS'__doc__'
p36
S"'Inappropriate argument type.'"
p37
sS'__getitem__'
p38
S"<method-wrapper '__getitem__' of exceptions.TypeError object>"
p39
sS'__setstate__'
p40
S'<built-in method __setstate__ of exceptions.TypeError object>'
p41
sS'__getattribute__'
p42
S"<method-wrapper '__getattribute__' of exceptions.TypeError object>"
p43
sS'args'
p44
S"('__init__() takes at least 3 arguments (1 given)',)"
p45
sS'__subclasshook__'
p46
S'<built-in method __subclasshook__ of type object>'
p47
sS'__unicode__'
p48
S'<built-in method __unicode__ of exceptions.TypeError object>'
p49
sS'__delattr__'
p50
S"<method-wrapper '__delattr__' of exceptions.TypeError object>"
p51
sS'__repr__'
p52
S"<method-wrapper '__repr__' of exceptions.TypeError object>"
p53
sS'__hash__'
p54
S"<method-wrapper '__hash__' of exceptions.TypeError object>"
p55
ssS'evalue'
p56
S'__init__() takes at least 3 arguments (1 given)'
p57
sS'request'
p58
cgluon.html
XML_unpickle
p59
(S'st\\\x00\x00<div><table><tr><td style="font-weight:bold;vertical-align:top;">ajax</td><td style="vertical-align:top;">:</td><td><div>False</div></td></tr><tr><td style="font-weight:bold;vertical-align:top;">application</td><td style="vertical-align:top;">:</td><td><div>blog_it_out2</div></td></tr><tr><td style="font-weight:bold;vertical-align:top;">args</td><td style="vertical-align:top;">:</td><td><div><table></table></div></td></tr><tr><td style="font-weight:bold;vertical-align:top;">cid</td><td style="vertical-align:top;">:</td><td><div>None</div></td></tr><tr><td style="font-weight:bold;vertical-align:top;">client</td><td style="vertical-align:top;">:</td><td><div>127.0.0.1</div></td></tr><tr><td style="font-weight:bold;vertical-align:top;">controller</td><td style="vertical-align:top;">:</td><td><div>user</div></td></tr><tr><td style="font-weight:bold;vertical-align:top;">cookies</td><td style="vertical-align:top;">:</td><td><div><table><tr><td style="font-weight:bold;vertical-align:top;">session_id_admin</td><td style="vertical-align:top;">:</td><td><div>127.0.0.1-1e7aa582-78d9-494c-a234-11ae21f2c915<table><tr><td style="font-weight:bold;vertical-align:top;">comment</td><td style="vertical-align:top;">:</td><td><div></div></td></tr><tr><td style="font-weight:bold;vertical-align:top;">domain</td><td style="vertical-align:top;">:</td><td><div></div></td></tr><tr><td style="font-weight:bold;vertical-align:top;">expires</td><td style="vertical-align:top;">:</td><td><div></div></td></tr><tr><td style="font-weight:bold;vertical-align:top;">httponly</td><td style="vertical-align:top;">:</td><td><div></div></td></tr><tr><td style="font-weight:bold;vertical-align:top;">max-age</td><td style="vertical-align:top;">:</td><td><div></div></td></tr><tr><td style="font-weight:bold;vertical-align:top;">path</td><td style="vertical-align:top;">:</td><td><div></div></td></tr><tr><td style="font-weight:bold;vertical-align:top;">secure</td><td style="vertical-align:top;">:</td><td><div></div></td></tr><tr><td style="font-weight:bold;vertical-align:top;">version</td><td style="vertical-align:top;">:</td><td><div></div></td></tr></table></div></td></tr><tr><td style="font-weight:bold;vertical-align:top;">session_id_blog_it_out2</td><td style="vertical-align:top;">:</td><td><div>127.0.0.1-8d5a2bfe-fbc5-420c-a33b-dc60fcb7d1a1<table><tr><td style="font-weight:bold;vertical-align:top;">comment</td><td style="vertical-align:top;">:</td><td><div></div></td></tr><tr><td style="font-weight:bold;vertical-align:top;">domain</td><td style="vertical-align:top;">:</td><td><div></div></td></tr><tr><td style="font-weight:bold;vertical-align:top;">expires</td><td style="vertical-align:top;">:</td><td><div></div></td></tr><tr><td style="font-weight:bold;vertical-align:top;">httponly</td><td style="vertical-align:top;">:</td><td><div></div></td></tr><tr><td style="font-weight:bold;vertical-align:top;">max-age</td><td style="vertical-align:top;">:</td><td><div></div></td></tr><tr><td style="font-weight:bold;vertical-align:top;">path</td><td style="vertical-align:top;">:</td><td><div></div></td></tr><tr><td style="font-weight:bold;vertical-align:top;">secure</td><td style="vertical-align:top;">:</td><td><div></div></td></tr><tr><td style="font-weight:bold;vertical-align:top;">version</td><td style="vertical-align:top;">:</td><td><div></div></td></tr></table></div></td></tr><tr><td style="font-weight:bold;vertical-align:top;">session_id_welcome</td><td style="vertical-align:top;">:</td><td><div>127.0.0.1-78cb775f-604e-4ec3-b577-bdadd88ea7ed<table><tr><td style="font-weight:bold;vertical-align:top;">comment</td><td style="vertical-align:top;">:</td><td><div></div></td></tr><tr><td style="font-weight:bold;vertical-align:top;">domain</td><td style="vertical-align:top;">:</td><td><div></div></td></tr><tr><td style="font-weight:bold;vertical-align:top;">expires</td><td style="vertical-align:top;">:</td><td><div></div></td></tr><tr><td style="font-weight:bold;vertical-align:top;">httponly</td><td style="vertical-align:top;">:</td><td><div></div></td></tr><tr><td style="font-weight:bold;vertical-align:top;">max-age</td><td style="vertical-align:top;">:</td><td><div></div></td></tr><tr><td style="font-weight:bold;vertical-align:top;">path</td><td style="vertical-align:top;">:</td><td><div></div></td></tr><tr><td style="font-weight:bold;vertical-align:top;">secure</td><td style="vertical-align:top;">:</td><td><div></div></td></tr><tr><td style="font-weight:bold;vertical-align:top;">version</td><td style="vertical-align:top;">:</td><td><div></div></td></tr></table></div></td></tr></table></div></td></tr><tr><td style="font-weight:bold;vertical-align:top;">env</td><td style="vertical-align:top;">:</td><td><div><table><tr><td style="font-weight:bold;vertical-align:top;">HTTP_ACCEPT</td><td style="vertical-align:top;">:</td><td><div>text/html,application/xhtml+xml,application/xml;q=0.9,image/webp,image/apng,*/*;q=0.8</div></td></tr><tr><td style="font-weight:bold;vertical-align:top;">HTTP_ACCEPT_ENCODING</td><td style="vertical-align:top;">:</td><td><div>gzip, deflate, br</div></td></tr><tr><td style="font-weight:bold;vertical-align:top;">HTTP_ACCEPT_LANGUAGE</td><td style="vertical-align:top;">:</td><td><div>en-US,en;q=0.9</div></td></tr><tr><td style="font-weight:bold;vertical-align:top;">HTTP_CACHE_CONTROL</td><td style="vertical-align:top;">:</td><td><div>max-age=0</div></td></tr><tr><td style="font-weight:bold;vertical-align:top;">HTTP_CONNECTION</td><td style="vertical-align:top;">:</td><td><div>keep-alive</div></td></tr><tr><td style="font-weight:bold;vertical-align:top;">HTTP_COOKIE</td><td style="vertical-align:top;">:</td><td><div>session_id_admin=127.0.0.1-1e7aa582-78d9-494c-a234-11ae21f2c915; session_id_blog_it_out2=127.0.0.1-8d5a2bfe-fbc5-420c-a33b-dc60fcb7d1a1; session_id_welcome=127.0.0.1-78cb775f-604e-4ec3-b577-bdadd88ea7ed</div></td></tr><tr><td style="font-weight:bold;vertical-align:top;">HTTP_HOST</td><td style="vertical-align:top;">:</td><td><div>127.0.0.1:8000</div></td></tr><tr><td style="font-weight:bold;vertical-align:top;">HTTP_UPGRADE_INSECURE_REQUESTS</td><td style="vertical-align:top;">:</td><td><div>1</div></td></tr><tr><td style="font-weight:bold;vertical-align:top;">HTTP_USER_AGENT</td><td style="vertical-align:top;">:</td><td><div>Mozilla/5.0 (Macintosh; Intel Mac OS X 10_13_6) AppleWebKit/537.36 (KHTML, like Gecko) Chrome/67.0.3396.99 Safari/537.36</div></td></tr><tr><td style="font-weight:bold;vertical-align:top;">PATH_INFO</td><td style="vertical-align:top;">:</td><td><div>/blog_it_out2/user/login</div></td></tr><tr><td style="font-weight:bold;vertical-align:top;">QUERY_STRING</td><td style="vertical-align:top;">:</td><td><div></div></td></tr><tr><td style="font-weight:bold;vertical-align:top;">REMOTE_ADDR</td><td style="vertical-align:top;">:</td><td><div>127.0.0.1</div></td></tr><tr><td style="font-weight:bold;vertical-align:top;">REMOTE_PORT</td><td style="vertical-align:top;">:</td><td><div>60394</div></td></tr><tr><td style="font-weight:bold;vertical-align:top;">REQUEST_METHOD</td><td style="vertical-align:top;">:</td><td><div>GET</div></td></tr><tr><td style="font-weight:bold;vertical-align:top;">SCRIPT_NAME</td><td style="vertical-align:top;">:</td><td><div></div></td></tr><tr><td style="font-weight:bold;vertical-align:top;">SERVER_NAME</td><td style="vertical-align:top;">:</td><td><div>C02V64YVHTD6</div></td></tr><tr><td style="font-weight:bold;vertical-align:top;">SERVER_PORT</td><td style="vertical-align:top;">:</td><td><div>8000</div></td></tr><tr><td style="font-weight:bold;vertical-align:top;">SERVER_PROTOCOL</td><td style="vertical-align:top;">:</td><td><div>HTTP/1.1</div></td></tr><tr><td style="font-weight:bold;vertical-align:top;">SERVER_SOFTWARE</td><td style="vertical-align:top;">:</td><td><div>Rocket 1.2.6</div></td></tr><tr><td style="font-weight:bold;vertical-align:top;">app_folders</td><td style="vertical-align:top;">:</td><td><div>set([&#x27;/Users/i342082/Downloads/web2py/applications/blog_it_out2/&#x27;, &#x27;/Users/i342082/Downloads/web2py/applications/welcome/&#x27;, &#x27;/Users/i342082/Downloads/web2py/applications/admin/&#x27;])</div></td></tr><tr><td style="font-weight:bold;vertical-align:top;">applications_parent</td><td style="vertical-align:top;">:</td><td><div>/Users/i342082/Downloads/web2py</div></td></tr><tr><td style="font-weight:bold;vertical-align:top;">cmd_args</td><td style="vertical-align:top;">:</td><td><div><table></table></div></td></tr><tr><td style="font-weight:bold;vertical-align:top;">cmd_options</td><td style="vertical-align:top;">:</td><td><div>&lt;Values at 0x10432aa28: {&#x27;verbose&#x27;: False, &#x27;ip&#x27;: &#x27;127.0.0.1&#x27;, &#x27;debuglevel&#x27;: 30, &#x27;with_scheduler&#x27;: False, &#x27;shutdown_timeout&#x27;: 5, &#x27;taskbar&#x27;: False, &#x27;with_coverage&#x27;: False, &#x27;pid_filename&#x27;: &#x27;httpserver.pid&#x27;, &#x27;maxthreads&#x27;: None, &#x27;softcron&#x27;: False, &#x27;server_name&#x27;: &#x27;C02V64YVHTD6&#x27;, &#x27;bpython&#x27;: False, &#x27;nogui&#x27;: False, &#x27;port&#x27;: 8000, &#x27;print_errors&#x27;: False, &#x27;extcron&#x27;: False, &#x27;runcron&#x27;: False, &#x27;run_system_tests&#x27;: False, &#x27;test&#x27;: None, &#x27;folder&#x27;: &#x27;/Users/i342082/Downloads/web2py&#x27;, &#x27;config&#x27;: &#x27;&#x27;, &#x27;minthreads&#x27;: None, &#x27;shell&#x27;: None, &#x27;run&#x27;: &#x27;&#x27;, &#x27;log_filename&#x27;: &#x27;httpserver.log&#x27;, &#x27;profiler_dir&#x27;: None, &#x27;args&#x27;: [&#x27;&#x27;], &#x27;socket_timeout&#x27;: 5, &#x27;ssl_ca_certificate&#x27;: None, &#x27;scheduler&#x27;: None, &#x27;interfaces&#x27;: None, &#x27;ssl_private_key&#x27;: &#x27;&#x27;, &#x27;gae&#x27;: None, &#x27;password&#x27;: &#x27;******&#x27;, &#x27;request_queue_size&#x27;: 5, &#x27;ssl_certificate&#x27;: &#x27;&#x27;, &#x27;cronjob&#x27;: False, &#x27;numthreads&#x27;: None, &#x27;quiet&#x27;: False, &#x27;import_models&#x27;: False, &#x27;timeout&#x27;: 10, &#x27;plain&#x27;: False, &#x27;nobanner&#x27;: False}&gt;</div></td></tr><tr><td style="font-weight:bold;vertical-align:top;">db_sessions</td><td style="vertical-align:top;">:</td><td><div>set([])</div></td></tr><tr><td style="font-weight:bold;vertical-align:top;">debugging</td><td style="vertical-align:top;">:</td><td><div>True</div></td></tr><tr><td style="font-weight:bold;vertical-align:top;">gluon_parent</td><td style="vertical-align:top;">:</td><td><div>/Users/i342082/Downloads/web2py</div></td></tr><tr><td style="font-weight:bold;vertical-align:top;">http_accept</td><td style="vertical-align:top;">:</td><td><div>text/html,application/xhtml+xml,application/xml;q=0.9,image/webp,image/apng,*/*;q=0.8</div></td></tr><tr><td style="font-weight:bold;vertical-align:top;">http_accept_encoding</td><td style="vertical-align:top;">:</td><td><div>gzip, deflate, br</div></td></tr><tr><td style="font-weight:bold;vertical-align:top;">http_accept_language</td><td style="vertical-align:top;">:</td><td><div>en-US,en;q=0.9</div></td></tr><tr><td style="font-weight:bold;vertical-align:top;">http_cache_control</td><td style="vertical-align:top;">:</td><td><div>max-age=0</div></td></tr><tr><td style="font-weight:bold;vertical-align:top;">http_connection</td><td style="vertical-align:top;">:</td><td><div>keep-alive</div></td></tr><tr><td style="font-weight:bold;vertical-align:top;">http_cookie</td><td style="vertical-align:top;">:</td><td><div>session_id_admin=127.0.0.1-1e7aa582-78d9-494c-a234-11ae21f2c915; session_id_blog_it_out2=127.0.0.1-8d5a2bfe-fbc5-420c-a33b-dc60fcb7d1a1; session_id_welcome=127.0.0.1-78cb775f-604e-4ec3-b577-bdadd88ea7ed</div></td></tr><tr><td style="font-weight:bold;vertical-align:top;">http_host</td><td style="vertical-align:top;">:</td><td><div>127.0.0.1:8000</div></td></tr><tr><td style="font-weight:bold;vertical-align:top;">http_upgrade_insecure_requests</td><td style="vertical-align:top;">:</td><td><div>1</div></td></tr><tr><td style="font-weight:bold;vertical-align:top;">http_user_agent</td><td style="vertical-align:top;">:</td><td><div>Mozilla/5.0 (Macintosh; Intel Mac OS X 10_13_6) AppleWebKit/537.36 (KHTML, like Gecko) Chrome/67.0.3396.99 Safari/537.36</div></td></tr><tr><td style="font-weight:bold;vertical-align:top;">is_jython</td><td style="vertical-align:top;">:</td><td><div>False</div></td></tr><tr><td style="font-weight:bold;vertical-align:top;">is_py2</td><td style="vertical-align:top;">:</td><td><div>True</div></td></tr><tr><td style="font-weight:bold;vertical-align:top;">is_pypy</td><td style="vertical-align:top;">:</td><td><div>False</div></td></tr><tr><td style="font-weight:bold;vertical-align:top;">is_source</td><td style="vertical-align:top;">:</td><td><div>True</div></td></tr><tr><td style="font-weight:bold;vertical-align:top;">local_hosts</td><td style="vertical-align:top;">:</td><td><div><table><tr><td><div>C02V64YVHTD6</div></td></tr><tr><td><div>::1</div></td></tr><tr><td><div>::ffff:127.0.0.1</div></td></tr><tr><td><div>127.0.0.1</div></td></tr></table></div></td></tr><tr><td style="font-weight:bold;vertical-align:top;">path_info</td><td style="vertical-align:top;">:</td><td><div>/blog_it_out2/user/login</div></td></tr><tr><td style="font-weight:bold;vertical-align:top;">query_string</td><td style="vertical-align:top;">:</td><td><div></div></td></tr><tr><td style="font-weight:bold;vertical-align:top;">remote_addr</td><td style="vertical-align:top;">:</td><td><div>127.0.0.1</div></td></tr><tr><td style="font-weight:bold;vertical-align:top;">remote_port</td><td style="vertical-align:top;">:</td><td><div>60394</div></td></tr><tr><td style="font-weight:bold;vertical-align:top;">request_method</td><td style="vertical-align:top;">:</td><td><div>GET</div></td></tr><tr><td style="font-weight:bold;vertical-align:top;">request_uri</td><td style="vertical-align:top;">:</td><td><div>/blog_it_out2/user/login</div></td></tr><tr><td style="font-weight:bold;vertical-align:top;">script_name</td><td style="vertical-align:top;">:</td><td><div></div></td></tr><tr><td style="font-weight:bold;vertical-align:top;">server_name</td><td style="vertical-align:top;">:</td><td><div>C02V64YVHTD6</div></td></tr><tr><td style="font-weight:bold;vertical-align:top;">server_port</td><td style="vertical-align:top;">:</td><td><div>8000</div></td></tr><tr><td style="font-weight:bold;vertical-align:top;">server_protocol</td><td style="vertical-align:top;">:</td><td><div>HTTP/1.1</div></td></tr><tr><td style="font-weight:bold;vertical-align:top;">server_software</td><td style="vertical-align:top;">:</td><td><div>Rocket 1.2.6</div></td></tr><tr><td style="font-weight:bold;vertical-align:top;">web2py_path</td><td style="vertical-align:top;">:</td><td><div>/Users/i342082/Downloads/web2py</div></td></tr><tr><td style="font-weight:bold;vertical-align:top;">web2py_version</td><td style="vertical-align:top;">:</td><td><div>2.16.1-stable+timestamp.2017.11.14.05.54.25</div></td></tr><tr><td style="font-weight:bold;vertical-align:top;">wsgi.errors</td><td style="vertical-align:top;">:</td><td><div>&lt;open file &#x27;&lt;stderr&gt;&#x27;, mode &#x27;w&#x27; at 0x1035551e0&gt;</div></td></tr><tr><td style="font-weight:bold;vertical-align:top;">wsgi.file_wrapper</td><td style="vertical-align:top;">:</td><td><div>&lt;class wsgiref.util.FileWrapper at 0x1042ec2c0&gt;</div></td></tr><tr><td style="font-weight:bold;vertical-align:top;">wsgi.input</td><td style="vertical-align:top;">:</td><td><div>&lt;socket._fileobject object at 0x10bfa69d0&gt;</div></td></tr><tr><td style="font-weight:bold;vertical-align:top;">wsgi.multiprocess</td><td style="vertical-align:top;">:</td><td><div>False</div></td></tr><tr><td style="font-weight:bold;vertical-align:top;">wsgi.multithread</td><td style="vertical-align:top;">:</td><td><div>True</div></td></tr><tr><td style="font-weight:bold;vertical-align:top;">wsgi.run_once</td><td style="vertical-align:top;">:</td><td><div>False</div></td></tr><tr><td style="font-weight:bold;vertical-align:top;">wsgi.url_scheme</td><td style="vertical-align:top;">:</td><td><div>http</div></td></tr><tr><td style="font-weight:bold;vertical-align:top;">wsgi.version</td><td style="vertical-align:top;">:</td><td><div><table><tr><td><div>1</div></td></tr><tr><td><div>0</div></td></tr></table></div></td></tr><tr><td style="font-weight:bold;vertical-align:top;">wsgi_errors</td><td style="vertical-align:top;">:</td><td><div>&lt;open file &#x27;&lt;stderr&gt;&#x27;, mode &#x27;w&#x27; at 0x1035551e0&gt;</div></td></tr><tr><td style="font-weight:bold;vertical-align:top;">wsgi_file_wrapper</td><td style="vertical-align:top;">:</td><td><div>&lt;class wsgiref.util.FileWrapper at 0x1042ec2c0&gt;</div></td></tr><tr><td style="font-weight:bold;vertical-align:top;">wsgi_input</td><td style="vertical-align:top;">:</td><td><div>&lt;socket._fileobject object at 0x10bfa69d0&gt;</div></td></tr><tr><td style="font-weight:bold;vertical-align:top;">wsgi_multiprocess</td><td style="vertical-align:top;">:</td><td><div>False</div></td></tr><tr><td style="font-weight:bold;vertical-align:top;">wsgi_multithread</td><td style="vertical-align:top;">:</td><td><div>True</div></td></tr><tr><td style="font-weight:bold;vertical-align:top;">wsgi_run_once</td><td style="vertical-align:top;">:</td><td><div>False</div></td></tr><tr><td style="font-weight:bold;vertical-align:top;">wsgi_url_scheme</td><td style="vertical-align:top;">:</td><td><div>http</div></td></tr><tr><td style="font-weight:bold;vertical-align:top;">wsgi_version</td><td style="vertical-align:top;">:</td><td><div><table><tr><td><div>1</div></td></tr><tr><td><div>0</div></td></tr></table></div></td></tr></table></div></td></tr><tr><td style="font-weight:bold;vertical-align:top;">extension</td><td style="vertical-align:top;">:</td><td><div>html</div></td></tr><tr><td style="font-weight:bold;vertical-align:top;">folder</td><td style="vertical-align:top;">:</td><td><div>/Users/i342082/Downloads/web2py/applications/blog_it_out2/</div></td></tr><tr><td style="font-weight:bold;vertical-align:top;">function</td><td style="vertical-align:top;">:</td><td><div>login</div></td></tr><tr><td style="font-weight:bold;vertical-align:top;">global_settings</td><td style="vertical-align:top;">:</td><td><div><table><tr><td style="font-weight:bold;vertical-align:top;">app_folders</td><td style="vertical-align:top;">:</td><td><div>set([&#x27;/Users/i342082/Downloads/web2py/applications/blog_it_out2/&#x27;, &#x27;/Users/i342082/Downloads/web2py/applications/welcome/&#x27;, &#x27;/Users/i342082/Downloads/web2py/applications/admin/&#x27;])</div></td></tr><tr><td style="font-weight:bold;vertical-align:top;">applications_parent</td><td style="vertical-align:top;">:</td><td><div>/Users/i342082/Downloads/web2py</div></td></tr><tr><td style="font-weight:bold;vertical-align:top;">cmd_args</td><td style="vertical-align:top;">:</td><td><div><table></table></div></td></tr><tr><td style="font-weight:bold;vertical-align:top;">cmd_options</td><td style="vertical-align:top;">:</td><td><div>&lt;Values at 0x10432aa28: {&#x27;verbose&#x27;: False, &#x27;ip&#x27;: &#x27;127.0.0.1&#x27;, &#x27;debuglevel&#x27;: 30, &#x27;with_scheduler&#x27;: False, &#x27;shutdown_timeout&#x27;: 5, &#x27;taskbar&#x27;: False, &#x27;with_coverage&#x27;: False, &#x27;pid_filename&#x27;: &#x27;httpserver.pid&#x27;, &#x27;maxthreads&#x27;: None, &#x27;softcron&#x27;: False, &#x27;server_name&#x27;: &#x27;C02V64YVHTD6&#x27;, &#x27;bpython&#x27;: False, &#x27;nogui&#x27;: False, &#x27;port&#x27;: 8000, &#x27;print_errors&#x27;: False, &#x27;extcron&#x27;: False, &#x27;runcron&#x27;: False, &#x27;run_system_tests&#x27;: False, &#x27;test&#x27;: None, &#x27;folder&#x27;: &#x27;/Users/i342082/Downloads/web2py&#x27;, &#x27;config&#x27;: &#x27;&#x27;, &#x27;minthreads&#x27;: None, &#x27;shell&#x27;: None, &#x27;run&#x27;: &#x27;&#x27;, &#x27;log_filename&#x27;: &#x27;httpserver.log&#x27;, &#x27;profiler_dir&#x27;: None, &#x27;args&#x27;: [&#x27;&#x27;], &#x27;socket_timeout&#x27;: 5, &#x27;ssl_ca_certificate&#x27;: None, &#x27;scheduler&#x27;: None, &#x27;interfaces&#x27;: None, &#x27;ssl_private_key&#x27;: &#x27;&#x27;, &#x27;gae&#x27;: None, &#x27;password&#x27;: &#x27;******&#x27;, &#x27;request_queue_size&#x27;: 5, &#x27;ssl_certificate&#x27;: &#x27;&#x27;, &#x27;cronjob&#x27;: False, &#x27;numthreads&#x27;: None, &#x27;quiet&#x27;: False, &#x27;import_models&#x27;: False, &#x27;timeout&#x27;: 10, &#x27;plain&#x27;: False, &#x27;nobanner&#x27;: False}&gt;</div></td></tr><tr><td style="font-weight:bold;vertical-align:top;">db_sessions</td><td style="vertical-align:top;">:</td><td><div>set([])</div></td></tr><tr><td style="font-weight:bold;vertical-align:top;">debugging</td><td style="vertical-align:top;">:</td><td><div>True</div></td></tr><tr><td style="font-weight:bold;vertical-align:top;">gluon_parent</td><td style="vertical-align:top;">:</td><td><div>/Users/i342082/Downloads/web2py</div></td></tr><tr><td style="font-weight:bold;vertical-align:top;">is_jython</td><td style="vertical-align:top;">:</td><td><div>False</div></td></tr><tr><td style="font-weight:bold;vertical-align:top;">is_py2</td><td style="vertical-align:top;">:</td><td><div>True</div></td></tr><tr><td style="font-weight:bold;vertical-align:top;">is_pypy</td><td style="vertical-align:top;">:</td><td><div>False</div></td></tr><tr><td style="font-weight:bold;vertical-align:top;">is_source</td><td style="vertical-align:top;">:</td><td><div>True</div></td></tr><tr><td style="font-weight:bold;vertical-align:top;">local_hosts</td><td style="vertical-align:top;">:</td><td><div><table><tr><td><div>C02V64YVHTD6</div></td></tr><tr><td><div>::1</div></td></tr><tr><td><div>::ffff:127.0.0.1</div></td></tr><tr><td><div>127.0.0.1</div></td></tr></table></div></td></tr><tr><td style="font-weight:bold;vertical-align:top;">web2py_version</td><td style="vertical-align:top;">:</td><td><div>2.16.1-stable+timestamp.2017.11.14.05.54.25</div></td></tr></table></div></td></tr><tr><td style="font-weight:bold;vertical-align:top;">is_https</td><td style="vertical-align:top;">:</td><td><div>False</div></td></tr><tr><td style="font-weight:bold;vertical-align:top;">is_local</td><td style="vertical-align:top;">:</td><td><div>True</div></td></tr><tr><td style="font-weight:bold;vertical-align:top;">is_restful</td><td style="vertical-align:top;">:</td><td><div>False</div></td></tr><tr><td style="font-weight:bold;vertical-align:top;">is_scheduler</td><td style="vertical-align:top;">:</td><td><div>False</div></td></tr><tr><td style="font-weight:bold;vertical-align:top;">is_shell</td><td style="vertical-align:top;">:</td><td><div>False</div></td></tr><tr><td style="font-weight:bold;vertical-align:top;">now</td><td style="vertical-align:top;">:</td><td><div>datetime.datetime(2018, 7, 22, 20, 13, 56, 385515)</div></td></tr><tr><td style="font-weight:bold;vertical-align:top;">raw_args</td><td style="vertical-align:top;">:</td><td><div></div></td></tr><tr><td style="font-weight:bold;vertical-align:top;">raw_extension</td><td style="vertical-align:top;">:</td><td><div>None</div></td></tr><tr><td style="font-weight:bold;vertical-align:top;">url</td><td style="vertical-align:top;">:</td><td><div>/blog_it_out2/user/login</div></td></tr><tr><td style="font-weight:bold;vertical-align:top;">utcnow</td><td style="vertical-align:top;">:</td><td><div>datetime.datetime(2018, 7, 22, 14, 43, 56, 385531)</div></td></tr><tr><td style="font-weight:bold;vertical-align:top;">wsgi</td><td style="vertical-align:top;">:</td><td><div>&lt;gluon.main.LazyWSGI object at 0x10bdabad0&gt;</div></td></tr></table></div>'
tRp60
sS'frames'
p61
(lp62
(dp63
S'file'
p64
S'/Users/i342082/Downloads/web2py/gluon/restricted.py'
p65
sS'dump'
p66
(dp67
S'environment'
p68
S"{'A': <class 'gluon.html.A'>, 'ANY_OF': <class 'gluon.validators.ANY_OF'>, 'ASSIGNJS': <function ASSIGNJS>, 'AppConfig': <function AppConfig>, 'Auth': <class 'gluon.tools.Auth'>, 'B': <class 'gluon.html.B'>, 'BEAUTIFY': <class 'gluon.html.BEAUTIFY'>, 'BODY': <class 'gluon.html.BODY'>, 'BR': <class 'gluon.html.BR'>, 'BUTTON': <class 'gluon.html.BUTTON'>, ...}"
p69
sS'ccode'
p70
S'<code object <module> at 0x10b3a8d30, file "/Use.../applications/blog_it_out2/models/db.py", line 7>'
p71
ssS'lnum'
p72
I219
sS'lines'
p73
(dp74
I214
S'    if environment is None:'
p75
sI215
S'        environment = {}'
p76
sI216
S"    environment['__file__'] = layer"
p77
sI217
S"    environment['__name__'] = '__restricted__'"
p78
sI218
S'    try:'
p79
sI219
S'        exec(ccode, environment)'
p80
sI220
S'    except HTTP:'
p81
sI221
S'        raise'
p82
sI222
S'    except RestrictedError:'
p83
sI223
S'        # do not encapsulate (obfuscate) the original RestrictedError'
p84
ssS'call'
p85
S'(ccode=<code object <module> at 0x10b3a8d30, file "/Use.../applications/blog_it_out2/models/db.py", line 7>, environment={\'A\': <class \'gluon.html.A\'>, \'ANY_OF\': <class \'gluon.validators.ANY_OF\'>, \'ASSIGNJS\': <function ASSIGNJS>, \'AppConfig\': <function AppConfig>, \'Auth\': <class \'gluon.tools.Auth\'>, \'B\': <class \'gluon.html.B\'>, \'BEAUTIFY\': <class \'gluon.html.BEAUTIFY\'>, \'BODY\': <class \'gluon.html.BODY\'>, \'BR\': <class \'gluon.html.BR\'>, \'BUTTON\': <class \'gluon.html.BUTTON\'>, ...}, layer=\'/Users/i342082/Downloads/web2py/applications/blog_it_out2/models/db.py\', scode=<code object <module> at 0x10b3a8d30, file "/Use.../applications/blog_it_out2/models/db.py", line 7>)'
p86
sS'func'
p87
S'restricted'
p88
sa(dp89
g64
S'/Users/i342082/Downloads/web2py/applications/blog_it_out2/models/db.py'
p90
sg66
(dp91
S'IS_EMAIL'
p92
S"<class 'gluon.validators.IS_EMAIL'>"
p93
sS'builtintype'
p94
S"<type 'type'>"
p95
sS'IS_NOT_IN_DB'
p96
S"<class 'gluon.validators.IS_NOT_IN_DB'>"
p97
sS'IS_NOT_EMPTY'
p98
S"<class 'gluon.validators.IS_NOT_EMPTY'>"
p99
sS'Field'
p100
S"<class 'pydal.objects.Field'>"
p101
sS'requires'
p102
S'undefined'
p103
ssg72
I170
sg73
(dp104
I165
S'               )'
p105
sI166
S''
sI167
S"db.define_table('person',"
p106
sI168
S"                Field('pen_name', type='string', requires=IS_NOT_EMPTY()),"
p107
sI169
S"                Field('password', type='password', requires=[IS_NOT_EMPTY(), CRYPT()]),"
p108
sI170
S"                Field('email', type='string', requires=[IS_NOT_EMPTY(),IS_EMAIL(), IS_NOT_IN_DB()]),"
p109
sI171
S"                Field('contact_no', type='integer', length=10),"
p110
sI172
S"                Field('about_me', type='text'),"
p111
sI173
S"                Field('profile_pic', type='blob')"
p112
sI174
S'               )'
p113
ssg85
S'()'
p114
sg87
S'<module>'
p115
sasS'pyver'
p116
S'Python 2.7.10: /usr/bin/python (prefix: /System/Library/Frameworks/Python.framework/Versions/2.7)'
p117
sS'session'
p118
g59
(S's7\x01\x00\x00<div><table><tr><td style="font-weight:bold;vertical-align:top;">last_orderby</td><td style="vertical-align:top;">:</td><td><div>None</div></td></tr><tr><td style="font-weight:bold;vertical-align:top;">last_query</td><td style="vertical-align:top;">:</td><td><div>db.person.id&gt;0</div></td></tr></table></div>'
tRp119
sS'etype'
p120
S"<type 'exceptions.TypeError'>"
p121
sS'date'
p122
S'Sun Jul 22 20:13:56 2018'
p123
sS'response'
p124
g59
(S's\xdf\x1a\x00\x00<div><table><tr><td style="font-weight:bold;vertical-align:top;">body</td><td style="vertical-align:top;">:</td><td><div>&lt;cStringIO.StringO object at 0x10c057e30&gt;</div></td></tr><tr><td style="font-weight:bold;vertical-align:top;">cookies</td><td style="vertical-align:top;">:</td><td><div><table><tr><td style="font-weight:bold;vertical-align:top;">session_id_blog_it_out2</td><td style="vertical-align:top;">:</td><td><div>127.0.0.1-8d5a2bfe-fbc5-420c-a33b-dc60fcb7d1a1<table><tr><td style="font-weight:bold;vertical-align:top;">comment</td><td style="vertical-align:top;">:</td><td><div></div></td></tr><tr><td style="font-weight:bold;vertical-align:top;">domain</td><td style="vertical-align:top;">:</td><td><div></div></td></tr><tr><td style="font-weight:bold;vertical-align:top;">expires</td><td style="vertical-align:top;">:</td><td><div></div></td></tr><tr><td style="font-weight:bold;vertical-align:top;">httponly</td><td style="vertical-align:top;">:</td><td><div></div></td></tr><tr><td style="font-weight:bold;vertical-align:top;">max-age</td><td style="vertical-align:top;">:</td><td><div></div></td></tr><tr><td style="font-weight:bold;vertical-align:top;">path</td><td style="vertical-align:top;">:</td><td><div>/</div></td></tr><tr><td style="font-weight:bold;vertical-align:top;">secure</td><td style="vertical-align:top;">:</td><td><div></div></td></tr><tr><td style="font-weight:bold;vertical-align:top;">version</td><td style="vertical-align:top;">:</td><td><div></div></td></tr></table></div></td></tr></table></div></td></tr><tr><td style="font-weight:bold;vertical-align:top;">delimiters</td><td style="vertical-align:top;">:</td><td><div><table><tr><td><div>{{</div></td></tr><tr><td><div>}}</div></td></tr></table></div></td></tr><tr><td style="font-weight:bold;vertical-align:top;">files</td><td style="vertical-align:top;">:</td><td><div><table></table></div></td></tr><tr><td style="font-weight:bold;vertical-align:top;">flash</td><td style="vertical-align:top;">:</td><td><div></div></td></tr><tr><td style="font-weight:bold;vertical-align:top;">form_label_separator</td><td style="vertical-align:top;">:</td><td><div></div></td></tr><tr><td style="font-weight:bold;vertical-align:top;">formstyle</td><td style="vertical-align:top;">:</td><td><div>bootstrap4_inline</div></td></tr><tr><td style="font-weight:bold;vertical-align:top;">generic_patterns</td><td style="vertical-align:top;">:</td><td><div><table><tr><td><div>*</div></td></tr></table></div></td></tr><tr><td style="font-weight:bold;vertical-align:top;">google_analytics_id</td><td style="vertical-align:top;">:</td><td><div>None</div></td></tr><tr><td style="font-weight:bold;vertical-align:top;">headers</td><td style="vertical-align:top;">:</td><td><div><table><tr><td style="font-weight:bold;vertical-align:top;">X-Powered-By</td><td style="vertical-align:top;">:</td><td><div>web2py</div></td></tr></table></div></td></tr><tr><td style="font-weight:bold;vertical-align:top;">menu</td><td style="vertical-align:top;">:</td><td><div><table></table></div></td></tr><tr><td style="font-weight:bold;vertical-align:top;">meta</td><td style="vertical-align:top;">:</td><td><div><table><tr><td style="font-weight:bold;vertical-align:top;">author</td><td style="vertical-align:top;">:</td><td><div>Your Name &lt;you@example.com&gt;</div></td></tr><tr><td style="font-weight:bold;vertical-align:top;">description</td><td style="vertical-align:top;">:</td><td><div>a cool new app</div></td></tr><tr><td style="font-weight:bold;vertical-align:top;">generator</td><td style="vertical-align:top;">:</td><td><div>Web2py Web Framework</div></td></tr><tr><td style="font-weight:bold;vertical-align:top;">keywords</td><td style="vertical-align:top;">:</td><td><div><table><tr><td><div>web2py</div></td></tr><tr><td><div>python</div></td></tr><tr><td><div>framework</div></td></tr></table></div></td></tr></table></div></td></tr><tr><td style="font-weight:bold;vertical-align:top;">models_to_run</td><td style="vertical-align:top;">:</td><td><div><table><tr><td><div>^\\w+\\.py$</div></td></tr><tr><td><div>^user/\\w+\\.py$</div></td></tr><tr><td><div>^user/login/\\w+\\.py$</div></td></tr></table></div></td></tr><tr><td style="font-weight:bold;vertical-align:top;">postprocessing</td><td style="vertical-align:top;">:</td><td><div><table></table></div></td></tr><tr><td style="font-weight:bold;vertical-align:top;">session_client</td><td style="vertical-align:top;">:</td><td><div>127.0.0.1</div></td></tr><tr><td style="font-weight:bold;vertical-align:top;">session_cookie_compression_level</td><td style="vertical-align:top;">:</td><td><div>None</div></td></tr><tr><td style="font-weight:bold;vertical-align:top;">session_cookie_expires</td><td style="vertical-align:top;">:</td><td><div>None</div></td></tr><tr><td style="font-weight:bold;vertical-align:top;">session_data_name</td><td style="vertical-align:top;">:</td><td><div>session_data_blog_it_out2</div></td></tr><tr><td style="font-weight:bold;vertical-align:top;">session_file</td><td style="vertical-align:top;">:</td><td><div>&lt;open file &#x27;/Users/i342082/Downloads/web2py/applications/blog_it_out2/sessions/188/14b/127.0.0.1-8d5a2bfe-fbc5-420c-a33b-dc60fcb7d1a1&#x27;, mode &#x27;rb+&#x27; at 0x10bffb540&gt;</div></td></tr><tr><td style="font-weight:bold;vertical-align:top;">session_filename</td><td style="vertical-align:top;">:</td><td><div>/Users/i342082/Downloads/web2py/applications/blog_it_out2/sessions/127.0.0.1-8d5a2bfe-fbc5-420c-a33b-dc60fcb7d1a1</div></td></tr><tr><td style="font-weight:bold;vertical-align:top;">session_hash</td><td style="vertical-align:top;">:</td><td><div>9e4edcb9aab504c6ba111b10436f068b</div></td></tr><tr><td style="font-weight:bold;vertical-align:top;">session_id</td><td style="vertical-align:top;">:</td><td><div>127.0.0.1-8d5a2bfe-fbc5-420c-a33b-dc60fcb7d1a1</div></td></tr><tr><td style="font-weight:bold;vertical-align:top;">session_id_name</td><td style="vertical-align:top;">:</td><td><div>session_id_blog_it_out2</div></td></tr><tr><td style="font-weight:bold;vertical-align:top;">session_locked</td><td style="vertical-align:top;">:</td><td><div>True</div></td></tr><tr><td style="font-weight:bold;vertical-align:top;">session_masterapp</td><td style="vertical-align:top;">:</td><td><div>blog_it_out2</div></td></tr><tr><td style="font-weight:bold;vertical-align:top;">session_new</td><td style="vertical-align:top;">:</td><td><div>False</div></td></tr><tr><td style="font-weight:bold;vertical-align:top;">session_storage_type</td><td style="vertical-align:top;">:</td><td><div>file</div></td></tr><tr><td style="font-weight:bold;vertical-align:top;">status</td><td style="vertical-align:top;">:</td><td><div>200</div></td></tr><tr><td style="font-weight:bold;vertical-align:top;">view</td><td style="vertical-align:top;">:</td><td><div>user/login.html</div></td></tr></table></div>'
tRp125
sS'locals'
p126
(dp127
S'PY2'
p128
S'True'
p129
sS'OBJECT'
p130
S"<class 'gluon.html.OBJECT'>"
p131
sS'SQLDB'
p132
S"<class 'pydal.base.DAL'>"
p133
sg118
S"<Storage {'_formkey[no_table/create]': ['05e019d...ac289', '969a83fd-ca80-479b-a81a-2712a5276f0b']}>"
p134
sS'LINK'
p135
S"<class 'gluon.html.LINK'>"
p136
sS'BR'
p137
S"<class 'gluon.html.BR'>"
p138
sS'local_import'
p139
S'<function <lambda>>'
p140
sS'OPTGROUP'
p141
S"<class 'gluon.html.OPTGROUP'>"
p142
sS'LI'
p143
S"<class 'gluon.html.LI'>"
p144
sS'PRE'
p145
S"<class 'gluon.html.PRE'>"
p146
sS'IS_INT_IN_RANGE'
p147
S"<class 'gluon.validators.IS_INT_IN_RANGE'>"
p148
sS'to_bytes'
p149
S'<function to_bytes>'
p150
sS'IS_LOWER'
p151
S"<class 'gluon.validators.IS_LOWER'>"
p152
sS'IS_STRONG'
p153
S"<class 'gluon.validators.IS_STRONG'>"
p154
sS'cache'
p155
S'<gluon.cache.Cache object>'
p156
sS'IS_IN_DB'
p157
S"<class 'gluon.validators.IS_IN_DB'>"
p158
sS'TAG'
p159
S'<gluon.html.__TAG__ object>'
p160
sS'SQLField'
p161
S"<class 'pydal.objects.Field'>"
p162
sS'mail'
p163
S'<gluon.tools.Mail object>'
p164
sS'BODY'
p165
S"<class 'gluon.html.BODY'>"
p166
sS'IS_DATE_IN_RANGE'
p167
S"<class 'gluon.validators.IS_DATE_IN_RANGE'>"
p168
sS'TH'
p169
S"<class 'gluon.html.TH'>"
p170
sS'URL'
p171
S'<function URL>'
p172
sS'__file__'
p173
S"'/Users/i342082/Downloads/web2py/applications/blog_it_out2/models/db.py'"
p174
sS'db'
p175
S'<DAL uri="sqlite://storage.sqlite">'
p176
sS'auth'
p177
S'<gluon.tools.Auth object>'
p178
sS'P'
S"<class 'gluon.html.P'>"
p179
sS'TFOOT'
p180
S"<class 'gluon.html.TFOOT'>"
p181
sS'iteritems'
p182
S'<function <lambda>>'
p183
sS'XHTML'
p184
S"<class 'gluon.html.XHTML'>"
p185
sS'ON'
p186
g129
sS'OL'
p187
S"<class 'gluon.html.OL'>"
p188
sS'TEXTAREA'
p189
S"<class 'gluon.html.TEXTAREA'>"
p190
sS'MENU'
p191
S"<class 'gluon.html.MENU'>"
p192
sS'LOAD'
p193
S'<function LOAD>'
p194
sS'CODE'
p195
S"<class 'gluon.html.CODE'>"
p196
sS'HTTP'
p197
S"<class 'gluon.http.HTTP'>"
p198
sS'HR'
p199
S"<class 'gluon.html.HR'>"
p200
sS'IS_DATETIME'
p201
S"<class 'gluon.validators.IS_DATETIME'>"
p202
sS'reduce'
p203
S'<built-in function reduce>'
p204
sg58
S"<Storage {'_vars': None, 'function': 'login', 'c...82/Downloads/web2py/applications/blog_it_out2/'}>"
p205
sS'LABEL'
p206
S"<class 'gluon.html.LABEL'>"
p207
sS'CLEANUP'
p208
S"<class 'gluon.validators.CLEANUP'>"
p209
sS'SELECT'
p210
S"<class 'gluon.html.SELECT'>"
p211
sS'CENTER'
p212
S"<class 'gluon.html.CENTER'>"
p213
sS'Auth'
p214
S"<class 'gluon.tools.Auth'>"
p215
sS'__builtins__'
p216
S"{'ArithmeticError': <type 'exceptions.ArithmeticError'>, 'AssertionError': <type 'exceptions.AssertionError'>, 'AttributeError': <type 'exceptions.AttributeError'>, 'BaseException': <type 'exceptions.BaseException'>, 'BufferError': <type 'exceptions.BufferError'>, 'BytesWarning': <type 'exceptions.BytesWarning'>, 'DeprecationWarning': <type 'exceptions.DeprecationWarning'>, 'EOFError': <type 'exceptions.EOFError'>, 'Ellipsis': Ellipsis, 'EnvironmentError': <type 'exceptions.EnvironmentError'>, ...}"
p217
sS'HTML'
p218
S"<class 'gluon.html.HTML'>"
p219
sS'SQLFORM'
p220
S"<class 'gluon.sqlhtml.SQLFORM'>"
p221
sS'EM'
p222
S"<class 'gluon.html.EM'>"
p223
sS'redirect'
p224
S'<function redirect>'
p225
sS'FIELDSET'
p226
S"<class 'gluon.html.FIELDSET'>"
p227
sS'IS_EQUAL_TO'
p228
S"<class 'gluon.validators.IS_EQUAL_TO'>"
p229
sS'HEAD'
p230
S"<class 'gluon.html.HEAD'>"
p231
sS'embed64'
p232
S'<function embed64>'
p233
sS'IS_LIST_OF'
p234
S"<class 'gluon.validators.IS_LIST_OF'>"
p235
sS'__name__'
p236
S"'__restricted__'"
p237
sS'EMBED'
p238
S"<class 'gluon.html.EMBED'>"
p239
sS'configuration'
p240
S"{'host': {'names': 'localhost:*, 127.0.0.1:*, *:...': 'sqlite://storage.sqlite', 'pool_size': '10'}}"
p241
sS'FORM'
p242
S"<class 'gluon.html.FORM'>"
p243
sS'H2'
p244
S"<class 'gluon.html.H2'>"
p245
sS'H3'
p246
S"<class 'gluon.html.H3'>"
p247
sS'AppConfig'
p248
S'<function AppConfig>'
p249
sS'H1'
p250
S"<class 'gluon.html.H1'>"
p251
sS'H6'
p252
S"<class 'gluon.html.H6'>"
p253
sS'H4'
p254
S"<class 'gluon.html.H4'>"
p255
sS'H5'
p256
S"<class 'gluon.html.H5'>"
p257
sS'UL'
p258
S"<class 'gluon.html.UL'>"
p259
sS'IS_UPPER'
p260
S"<class 'gluon.validators.IS_UPPER'>"
p261
sS'xmlescape'
p262
S'<function xmlescape>'
p263
sS'IS_TIME'
p264
S"<class 'gluon.validators.IS_TIME'>"
p265
sS'OPTION'
p266
S"<class 'gluon.html.OPTION'>"
p267
sS'TITLE'
p268
S"<class 'gluon.html.TITLE'>"
p269
sS'CRYPT'
p270
S"<class 'gluon.validators.CRYPT'>"
p271
sS'IS_EMPTY_OR'
p272
S"<class 'gluon.validators.IS_EMPTY_OR'>"
p273
sS'MARKMIN'
p274
S"<class 'gluon.html.MARKMIN'>"
p275
sS'INPUT'
p276
S"<class 'gluon.html.INPUT'>"
p277
sS'STRONG'
p278
S"<class 'gluon.html.STRONG'>"
p279
sS'COL'
p280
S"<class 'gluon.html.COL'>"
p281
sS'SCRIPT'
p282
S"<class 'gluon.html.SCRIPT'>"
p283
sS'TABLE'
p284
S"<class 'gluon.html.TABLE'>"
p285
sS'IS_IPV4'
p286
S"<class 'gluon.validators.IS_IPV4'>"
p287
sS'IS_LENGTH'
p288
S"<class 'gluon.validators.IS_LENGTH'>"
p289
sS'IS_IPV6'
p290
S"<class 'gluon.validators.IS_IPV6'>"
p291
sS'XML'
p292
S"<class 'gluon.html.XML'>"
p293
sS'B'
S"<class 'gluon.html.B'>"
p294
sS'IMG'
p295
S"<class 'gluon.html.IMG'>"
p296
sS'SQLTABLE'
p297
S"<class 'gluon.sqlhtml.SQLTABLE'>"
p298
sS'IS_MATCH'
p299
S"<class 'gluon.validators.IS_MATCH'>"
p300
sS'IS_ALPHANUMERIC'
p301
S"<class 'gluon.validators.IS_ALPHANUMERIC'>"
p302
sS'SPAN'
p303
S"<class 'gluon.html.SPAN'>"
p304
sS'IS_JSON'
p305
S"<class 'gluon.validators.IS_JSON'>"
p306
sS'IS_IPADDRESS'
p307
S"<class 'gluon.validators.IS_IPADDRESS'>"
p308
sS'IS_SLUG'
p309
S"<class 'gluon.validators.IS_SLUG'>"
p310
sS'BEAUTIFY'
p311
S"<class 'gluon.html.BEAUTIFY'>"
p312
sS'META'
p313
S"<class 'gluon.html.META'>"
p314
sS'BUTTON'
p315
S"<class 'gluon.html.BUTTON'>"
p316
sS'IS_DATE'
p317
S"<class 'gluon.validators.IS_DATE'>"
p318
sS'IS_EMAIL'
p319
S"<class 'gluon.validators.IS_EMAIL'>"
p320
sS'IS_NOT_EMPTY'
p321
S"<class 'gluon.validators.IS_NOT_EMPTY'>"
p322
sS'xrange'
p323
S"<type 'xrange'>"
p324
sS'TBODY'
p325
S"<class 'gluon.html.TBODY'>"
p326
sS'CAT'
p327
S"<class 'gluon.html.CAT'>"
p328
sS'Field'
p329
S"<class 'pydal.objects.Field'>"
p330
sS'IS_LIST_OF_EMAILS'
p331
S"<class 'gluon.validators.IS_LIST_OF_EMAILS'>"
p332
sS'DIV'
p333
S"<class 'gluon.html.DIV'>"
p334
sS'LEGEND'
p335
S"<class 'gluon.html.LEGEND'>"
p336
sS'to_native'
p337
S'<function to_native>'
p338
sS'COLGROUP'
p339
S"<class 'gluon.html.COLGROUP'>"
p340
sS'DAL'
p341
S"<class 'pydal.base.DAL'>"
p342
sS'ASSIGNJS'
p343
S'<function ASSIGNJS>'
p344
sS'TR'
p345
S"<class 'gluon.html.TR'>"
p346
sS'__package__'
p347
S'None'
p348
sS'IFRAME'
p349
S"<class 'gluon.html.IFRAME'>"
p350
sS'TD'
p351
S"<class 'gluon.html.TD'>"
p352
sS'IS_URL'
p353
S"<class 'gluon.validators.IS_URL'>"
p354
sS'A'
S"<class 'gluon.html.A'>"
p355
sS'STYLE'
p356
S"<class 'gluon.html.STYLE'>"
p357
sS'IS_DATETIME_IN_RANGE'
p358
S"<class 'gluon.validators.IS_DATETIME_IN_RANGE'>"
p359
sS'IS_IMAGE'
p360
S"<class 'gluon.validators.IS_IMAGE'>"
p361
sS'I'
S"<class 'gluon.html.I'>"
p362
sS'IS_NOT_IN_DB'
p363
S"<class 'gluon.validators.IS_NOT_IN_DB'>"
p364
sg124
S"<Storage {'body': <cStringIO.StringO object at 0...bda> at 0x10bb0ae60>, 'view': 'user/login.html'}>"
p365
sS'THEAD'
p366
S"<class 'gluon.html.THEAD'>"
p367
sS'ANY_OF'
p368
S"<class 'gluon.validators.ANY_OF'>"
p369
sS'IS_NULL_OR'
p370
S"<class 'gluon.validators.IS_EMPTY_OR'>"
p371
sS'IS_FLOAT_IN_RANGE'
p372
S"<class 'gluon.validators.IS_FLOAT_IN_RANGE'>"
p373
sS'IS_EXPR'
p374
S"<class 'gluon.validators.IS_EXPR'>"
p375
sS'IS_IN_SET'
p376
S"<class 'gluon.validators.IS_IN_SET'>"
p377
sS'IS_UPLOAD_FILENAME'
p378
S"<class 'gluon.validators.IS_UPLOAD_FILENAME'>"
p379
sS'IS_DECIMAL_IN_RANGE'
p380
S"<class 'gluon.validators.IS_DECIMAL_IN_RANGE'>"
p381
sS'TT'
p382
S"<class 'gluon.html.TT'>"
p383
sS'T'
S'<gluon.languages.translator object>'
p384
sssS'traceback'
p385
S'Traceback (most recent call last):\n  File "/Users/i342082/Downloads/web2py/gluon/restricted.py", line 219, in restricted\n    exec(ccode, environment)\n  File "/Users/i342082/Downloads/web2py/applications/blog_it_out2/models/db.py", line 170, in <module>\n    Field(\'email\', type=\'string\', requires=[IS_NOT_EMPTY(),IS_EMAIL(), IS_NOT_IN_DB()]),\nTypeError: __init__() takes at least 3 arguments (1 given)\n'
p386
s.